; Function Attrs: mustprogress nofree norecurse nosync nounwind willreturn memory(argmem: read) uwtable
define hidden noundef zeroext i1 @_ZNK15JvmtiBreakpoint6equalsERKS_(ptr nocapture noundef nonnull readonly align 8 dereferenceable(32) %0, ptr nocapture noundef nonnull readonly align 8 dereferenceable(32) %1) local_unnamed_addr #5 align 2 {
  %3 = getelementptr inbounds i8, ptr %0, i64 8
  %4 = load ptr, ptr %3, align 8
  %5 = getelementptr inbounds i8, ptr %1, i64 8
  %6 = load ptr, ptr %5, align 8
  %7 = icmp eq ptr %4, %6
  %8 = getelementptr inbounds i8, ptr %0, i64 16
  %9 = load i32, ptr %8, align 8
  %10 = getelementptr inbounds i8, ptr %1, i64 16
  %11 = load i32, ptr %10, align 8
  %12 = icmp eq i32 %9, %11
  %13 = select i1 %7, i1 %12, i1 false
  ret i1 %13
}